Microsoft (R) Macro Assembler  Version 4.00                 3/27/20 09:23:47

STDFCB - FCB calls for MSDOS                                Page     1-1
                                                            

       1                                ; 
       2                                ; Standard FCB calls for MSDOS (first 1
					2 function calls) 
       3                                ; 
       4                                 
       5                                .list 
       6                                 
       7                                TITLE   STDFCB - FCB calls for MSDOS 
       8                                NAME    STDFCB 
       9                                 
      10                             C  INCLUDE FCB.ASM 
      11                             C  ; 
      12                             C  ; FCB management routines for MSDOS 
      13                             C  ; 
      14                             C   
      15                             C  INCLUDE DOSSEG.ASM 
      16                             C  ; 
      17                             C  ; segment ordering for MSDOS 
      18                             C  ; 
      19                             C   
      20 0000                        C  CONSTANTS       SEGMENT BYTE PUBLIC 'CO
					NST' 
      21 0000                        C  CONSTANTS       ENDS 
      22                             C   
      23 0000                        C  DATA            SEGMENT BYTE PUBLIC 'DA
					TA' 
      24 0000                        C  DATA            ENDS 
      25                             C   
      26 0000                        C  CODE            SEGMENT BYTE PUBLIC 'CO
					DE' 
      27 0000                        C  CODE            ENDS 
      28                             C   
      29 0000                        C  LAST            SEGMENT BYTE PUBLIC 'LA
					ST' 
      30 0000                        C  LAST            ENDS 
      31                             C   
      32                             C  DOSGROUP    GROUP   CODE,CONSTANTS,DATA
					,LAST 
      33                             C   
      34                             C   
      35                             C  ENDIF 
      36                             C   
      37 0000                        C  CODE    SEGMENT BYTE PUBLIC  'CODE' 
      38                             C          ASSUME  SS:DOSGROUP,CS:DOSGROUP
					 
      39                             C   
      40                             C  .list 
      41                             C   
      42                             C          i_need  Name1,BYTE 
      43 0000                        C1  DATA SEGMENT BYTE PUBLIC 'DATA'
      44 0000                        C1  DATA ENDS
      45                             C          i_need  NumIO,BYTE 
      46 0000                        C1  DATA SEGMENT BYTE PUBLIC 'DATA'
      47 0000                        C1  DATA ENDS
Microsoft (R) Macro Assembler  Version 4.00                 3/27/20 09:23:47

STDFCB - FCB calls for MSDOS                                Page     1-2
DEVICE TABLE AND SRH DEFINITION                             

      48                             C          i_need  DevFCB,BYTE 
      49 0000                        C1  DATA SEGMENT BYTE PUBLIC 'DATA'
      50 0000                        C1  DATA ENDS
      51                             C          i_need  Creating,BYTE 
      52 0000                        C1  DATA SEGMENT BYTE PUBLIC 'DATA'
      53 0000                        C1  DATA ENDS
      54                             C          i_need  ExtFCB,BYTE 
      55 0000                        C1  DATA SEGMENT BYTE PUBLIC 'DATA'
      56 0000                        C1  DATA ENDS
      57                             C          i_need  Attrib,BYTE 
      58 0000                        C1  DATA SEGMENT BYTE PUBLIC 'DATA'
      59 0000                        C1  DATA ENDS
      60                             C          i_need  SpaceFlag,BYTE 
      61 0000                        C1  DATA SEGMENT BYTE PUBLIC 'DATA'
      62 0000                        C1  DATA ENDS
      63                             C          i_need  Current_Country,WORD 
      64 0000                        C1  DATA SEGMENT BYTE PUBLIC 'DATA'
      65 0000                        C1  DATA ENDS
      66                             C   
      67                             C          procedure   MakeFcb,NEAR 
      68 0000                        C1 MakeFcb PROC NEAR
      69 = 0002                      C  DRVBIT  EQU     2 
      70 = 0004                      C  NAMBIT  EQU     4 
      71 = 0008                      C  EXTBIT  EQU     8 
      72 0000  36: C6 06 0000 E 00   C          MOV     BYTE PTR [SpaceFlag],0 
      73 0006  32 D2                 C          XOR     DL,DL           ; Flag-
					-not ambiguous file name 
      74 0008  A8 02                 C          TEST    AL,DRVBIT       ; Use c
					urrent drive field if default? 
      75 000A  75 04                 C          JNZ     DEFDRV 
      76 000C  26: C6 05 00          C          MOV     BYTE PTR ES:[DI],0     
					 ; No - use default drive 
      77 0010                        C  DEFDRV: 
      78 0010  47                    C          INC     DI 
      79 0011  B9 0008               C          MOV     CX,8 
      80 0014  A8 04                 C          TEST    AL,NAMBIT       ; Use c
					urrent name fields as defualt? 
      81 0016  93                    C          XCHG    AX,BX           ; Save 
					bits in BX 
      82 0017  B0 20                 C          MOV     AL," " 
      83 0019  74 04                 C          JZ      FILLB           ; If no
					t, go fill with blanks 
      84 001B  03 F9                 C          ADD     DI,CX 
      85 001D  33 C9                 C          XOR     CX,CX           ; Don't
					 fill any 
      86 001F                        C  FILLB: 
      87 001F  F3/ AA                C          REP     STOSB 
      88 0021  B1 03                 C          MOV     CL,3 
      89 0023  F6 C3 08              C          TEST    BL,EXTBIT       ; Use c
					urrent extension as default 
      90 0026  74 04                 C          JZ      FILLB2 
      91 0028  03 F9                 C          ADD     DI,CX 
      92 002A  33 C9                 C          XOR     CX,CX 
      93 002C                        C  FILLB2: 
Microsoft (R) Macro Assembler  Version 4.00                 3/27/20 09:23:47

STDFCB - FCB calls for MSDOS                                Page     1-3
DEVICE TABLE AND SRH DEFINITION                             

      94 002C  F3/ AA                C          REP     STOSB 
      95 002E  91                    C          XCHG    AX,CX           ; Put z
					ero in AX 
      96 002F  AB                    C          STOSW 
      97 0030  AB                    C          STOSW                   ; Initi
					alize two words after to zero 
      98 0031  83 EF 10              C          SUB     DI,16           ; Point
					 back at start 
      99 0034  F6 C3 01              C          TEST    BL,1            ; Scan 
					off separators if not zero 
     100 0037  74 09                 C          JZ      SKPSPC 
     101 0039  E8 00AF R             C          CALL    SCANB           ; Peel 
					off blanks and tabs 
     102 003C  E8 01BF R             C          CALL    DELIM           ; Is it
					 a one-time-only delimiter? 
     103 003F  75 04                 C          JNZ     NOSCAN 
     104 0041  46                    C          INC     SI              ; Skip 
					over the delimiter 
     105 0042                        C  SKPSPC: 
     106 0042  E8 00AF R             C          CALL    SCANB           ; Alway
					s kill preceding blanks and tabs 
     107 0045                        C  NOSCAN: 
     108 0045  E8 0191 R             C          CALL    GETLET 
     109 0048  76 16                 C          JBE     NODRV           ; Quit 
					if termination character 
     110 004A  80 3C 3A              C          CMP     BYTE PTR[SI],":"       
					 ; Check for potential drive specifier 
     111 004D  75 11                 C          JNZ     NODRV 
     112 004F  46                    C          INC     SI              ; Skip 
					over colon 
     113 0050  2C 40                 C          SUB     AL,"@"          ; Conve
					rt drive letter to binary drive number 
     114 0052  76 07                 C          JBE     BADDRV          ; Valid
					 drive numbers are <= NUMIO 
     115 0054  36: 3A 06 0000 E      C          CMP     AL,BYTE PTR [NUMIO] 
     116 0059  76 02                 C          JBE     HAVDRV 
     117 005B                        C  BADDRV: 
     118 005B  B2 FF                 C          MOV     DL,-1 
     119 005D                        C  HAVDRV: 
     120 005D  AA                    C          STOSB           ; Put drive spe
					cifier in first byte 
     121 005E  46                    C          INC     SI 
     122 005F  4F                    C          DEC     DI      ; Counteract ne
					xt two instructions 
     123 0060                        C  NODRV: 
     124 0060  4E                    C          DEC     SI      ; Back up 
     125 0061  47                    C          INC     DI      ; Skip drive by
					te 
     126 0062                        C  NORMSCAN: 
     127 0062  B9 0008               C          MOV     CX,8 
     128 0065  E8 007B R             C          CALL    GETWORD         ; Get 8
					-letter file name 
     129 0068  80 3C 2E              C          CMP     BYTE PTR [SI],"." 
     130 006B  75 07                 C          JNZ     NODOT 
Microsoft (R) Macro Assembler  Version 4.00                 3/27/20 09:23:47

STDFCB - FCB calls for MSDOS                                Page     1-4
DEVICE TABLE AND SRH DEFINITION                             

     131 006D  46                    C          INC     SI              ; Skip 
					over dot if present 
     132 006E  B9 0003               C          MOV     CX,3            ; Get 3
					-letter extension 
     133 0071  E8 0081 R             C          CALL    MUSTGETWORD 
     134 0074                        C  NODOT: 
     135 0074  8A C2                 C          MOV     AL,DL 
     136                             C          return 
     137 0076                        C1 ??0000:
     138 0076  C3                    C1  RET
     139                             C   
     140 0077                        C  NONAM: 
     141 0077  03 F9                 C          ADD     DI,CX 
     142 0079  4E                    C          DEC     SI 
     143                             C          return 
     144 007A                        C1 ??0001:
     145 007A  C3                    C1  RET
     146                             C   
     147 007B                        C  GETWORD: 
     148 007B  E8 0191 R             C          CALL    GETLET 
     149 007E  76 F7                 C          JBE     NONAM           ; Exit 
					if invalid character 
     150 0080  4E                    C          DEC     SI 
     151                             C  ; 
     152                             C  ; UGH!!! Horrible bug here that should 
					be fixed at some point: 
     153                             C  ; If the name we are scanning is longer
					 than CX, we keep on reading! 
     154                             C  ; 
     155 0081                        C  MUSTGETWORD: 
     156 0081  E8 0191 R             C          CALL    GETLET 
     157                             C  ; 
     158                             C  ; If spaceFlag is set then we allow spa
					ces in a pathname 
     159                             C  ; 
     160 0084  72 23                 C          JB      FILLNAM 
     161 0086  75 0C                 C          JNZ     MustCheckCX 
     162 0088  36: F6 06 0000 E FF   C          TEST    BYTE PTR [SpaceFlag],0F
					Fh 
     163 008E  74 19                 C          JZ      FILLNAM 
     164 0090  3C 20                 C          CMP     AL," " 
     165 0092  75 15                 C          JNZ     FILLNAM 
     166                             C   
     167 0094                        C  MustCheckCX: 
     168 0094  E3 EB                 C          JCXZ    MUSTGETWORD 
     169 0096  49                    C          DEC     CX 
     170 0097  3C 2A                 C          CMP     AL,"*"                 
					 ; Check for ambiguous file specifier 
     171 0099  75 04                 C          JNZ     NOSTAR 
     172 009B  B0 3F                 C          MOV     AL,"?" 
     173 009D  F3/ AA                C          REP     STOSB 
     174 009F                        C  NOSTAR: 
     175 009F  AA                    C          STOSB 
     176                             C   
Microsoft (R) Macro Assembler  Version 4.00                 3/27/20 09:23:47

STDFCB - FCB calls for MSDOS                                Page     1-5
DEVICE TABLE AND SRH DEFINITION                             

     177                             C          ENDIF 
     178                             C   
     179 00A0  3C 3F                 C          CMP     AL,"?" 
     180 00A2  75 DD                 C          JNZ     MUSTGETWORD 
     181 00A4  80 CA 01              C          OR      DL,1                   
					 ; Flag ambiguous file name 
     182 00A7  EB D8                 C          JMP     MUSTGETWORD 
     183 00A9                        C  FILLNAM: 
     184 00A9  B0 20                 C          MOV     AL," " 
     185 00AB  F3/ AA                C          REP     STOSB 
     186 00AD  4E                    C          DEC     SI 
     187                             C          return 
     188 00AE                        C1 ??0002:
     189 00AE  C3                    C1  RET
     190                             C   
     191 00AF                        C  SCANB: 
     192 00AF  AC                    C          LODSB 
     193 00B0  E8 01DF R             C          CALL    SPCHK 
     194 00B3  74 FA                 C          JZ      SCANB 
     195 00B5  4E                    C          DEC     SI 
     196                             C          return 
     197 00B6                        C1 ??0003:
     198 00B6  C3                    C1  RET
     199                             C  MakeFCB ENDP 
     200                             C   
     201                             C  ; 
     202                             C  ; NameTrans is used by FindPath to scan
					 off an element 
     203                             C  ; of a path.  We must allow spaces in p
					athnames 
     204                             C  ; Inputs:   SS - DOSGROUP 
     205                             C  ;           DS:SI name 
     206                             C  ; Outputs:  DS:SI advanced over spot 
     207                             C  ;           ES:DI point to after Name1 
     208                             C  ; registers modified: AX, BX, CX, DX 
     209                             C  procedure   NameTrans,near 
     210 00B7                        C1 NameTrans PROC near
     211 00B7  36: C6 06 0000 E 01   C          MOV     BYTE PTR [SpaceFlag],1 
     212 00BD  16                    C          PUSH    SS 
     213 00BE  07                    C          POP     ES 
     214 00BF  BF 0000 E             C          MOV     DI,OFFSET DOSGROUP:NAME
					1 
     215 00C2  57                    C          PUSH    DI 
     216 00C3  B0 20                 C          MOV     AL,' ' 
     217 00C5  B9 000B               C          MOV     CX,11 
     218 00C8  F3/ AA                C          REP     STOSB 
     219 00CA  32 C0                 C          XOR     AL,AL 
     220 00CC  8A D0                 C          MOV     DL,AL 
     221 00CE  AA                    C          STOSB 
     222 00CF  5F                    C          POP     DI 
     223 00D0  80 3C 2E              C          CMP     BYTE PTR [SI],'.' 
     224                             C   
     225                             C          ELSE 
     226 00D3  75 8D                 C          JNZ     NORMSCAN 
Microsoft (R) Macro Assembler  Version 4.00                 3/27/20 09:23:47

STDFCB - FCB calls for MSDOS                                Page     1-6
DEVICE TABLE AND SRH DEFINITION                             

     227                             C          ENDIF 
     228                             C   
     229 00D5  A4                    C          MOVSB 
     230 00D6  AC                    C          LODSB 
     231 00D7  E8 01E6 R             C          CALL    PATHCHRCMP 
     232 00DA  74 15                 C          JZ      GOTDOTNAME 
     233 00DC  0A C0                 C          OR      AL,AL 
     234 00DE  74 11                 C          JZ      GOTDOTNAME 
     235 00E0  3C 2E                 C          CMP     AL,'.' 
     236 00E2  75 0C                 C          JNZ     BADDOTS 
     237 00E4  AA                    C          STOSB 
     238 00E5  AC                    C          LODSB 
     239 00E6  E8 01E6 R             C          CALL    PATHCHRCMP 
     240 00E9  74 06                 C          JZ      GOTDOTNAME 
     241 00EB  0A C0                 C          OR      AL,AL 
     242 00ED  74 02                 C          JZ      GOTDOTNAME 
     243 00EF  4E                    C          DEC     SI 
     244 00F0                        C  BADDOTS: 
     245 00F0  4E                    C          DEC     SI 
     246 00F1                        C  GOTDOTNAME: 
     247 00F1  4E                    C          DEC     SI 
     248 00F2  32 C0                 C          XOR     AL,AL 
     249                             C          return 
     250 00F4                        C1 ??0004:
     251 00F4  C3                    C1  RET
     252                             C  nametrans   ENDP 
     253                             C   
     254                             C  SUBTTL BUILDFCB -- MAKE A BLANK FCB FOR
					 A DEVICE 
Microsoft (R) Macro Assembler  Version 4.00                 3/27/20 09:23:47

STDFCB - FCB calls for MSDOS                                Page     1-7
BUILDFCB -- MAKE A BLANK FCB FOR A DEVICE                   

     255                             C  PAGE 
     256                             C          procedure BuildFCB,near 
     257 00F5                        C1 BuildFCB PROC near
     258                             C  ASSUME  DS:DOSGROUP,ES:DOSGROUP 
     259                             C   
     260                             C  ; Function: 
     261                             C  ;       Build a blank FCB for I/O to a 
					device 
     262                             C  ; Outputs: 
     263                             C  ;       Same as GETNAME 
     264                             C   
     265 00F5  B8 2020               C          MOV     AX,"  " 
     266 00F8  BF 0008 E             C          MOV     DI,OFFSET DOSGROUP:DEVF
					CB+8     ; Point to extent field 
     267 00FB  AB                    C          STOSW 
     268 00FC  AA                    C          STOSB                   ; Blank
					 out extent field 
     269 00FD  33 C0                 C          XOR     AX,AX 
     270 00FF  B9 000A               C          MOV     CX,10 
     271 0102  F3/ AB                C          REP     STOSW           ; Fill 
					FCB with zeros 
     272 0104  AA                    C          STOSB 
     273                             C          invoke  DATE16 
     274 0105  E8 0000 E             C1  CALL DATE16
     275 0108  BF 0016 E             C          MOV     DI,OFFSET DOSGROUP:DEVF
					CB+22 
     276 010B  92                    C          XCHG    AX,DX 
     277 010C  AB                    C          STOSW 
     278 010D  92                    C          XCHG    AX,DX 
     279 010E  AB                    C          STOSW 
     280 010F  93                    C          XCHG    AX,BX           ; But d
					evice number in AH 
     281 0110  BB 0000 E             C          MOV     BX,OFFSET DOSGROUP:DEVF
					CB 
     282 0113  8B F7                 C          MOV     SI,DI 
     283 0115  32 C0                 C          XOR     AL,AL           ; Set z
					ero, clear carry 
     284                             C          return 
     285 0117                        C1 ??0005:
     286 0117  C3                    C1  RET
     287                             C  BuildFCB    ENDP 
     288                             C   
     289                             C  SUBTTL MOVENAME, LODNAME -- EXAMINE FCB
					 AND SETUP 
Microsoft (R) Macro Assembler  Version 4.00                 3/27/20 09:23:47

STDFCB - FCB calls for MSDOS                                Page     1-8
MOVENAME, LODNAME -- EXAMINE FCB AND SETUP                  

     290                             C  PAGE 
     291                             C          procedure   FCB_move,NEAR 
     292 0118                        C1 FCB_move PROC NEAR
     293                             C   
     294                             C          entry   MOVNAMENOSET 
     295 0118                        C1 MOVNAMENOSET:
     296 0118  BF 0001               C          MOV     DI,1 
     297 011B  EB 02                 C          JMP     SHORT MOVSTART 
     298                             C   
     299                             C          entry   MOVNAME 
     300 011D                        C1 MOVNAME:
     301                             C  ASSUME  DS:NOTHING,ES:NOTHING 
     302                             C   
     303                             C  ; Inputs: 
     304                             C  ;       DS, DX point to FCB or extended
					 FCB 
     305                             C  ; Outputs: 
     306                             C  ;       DS:DX point to normal FCB 
     307                             C  ;       DS:SI point after end of NAME/E
					XT in FCB 
     308                             C  ;       ES = DOSGROUP 
     309                             C  ;       If file name OK: 
     310                             C  ;       [NAME1] has name in upper case 
     311                             C  ; All registers destroyed 
     312                             C  ; Carry set if bad file name or drive 
     313                             C   
     314 011D  33 FF                 C          XOR     DI,DI 
     315 011F                        C  MOVSTART: 
     316 011F  36: C7 06 0000 E E500 C          MOV     WORD PTR [CREATING],0E5
					00H   ; Not creating, not DEL *.* 
     317 0126  8B F2                 C          MOV     SI,DX 
     318 0128  AC                    C          LODSB 
     319 0129  36: A2 0000 E         C          MOV     [EXTFCB],AL     ; Set f
					lag if extended FCB in use 
     320 012D  32 E4                 C          XOR     AH,AH           ; Set d
					efault attributes 
     321 012F  3C FF                 C          CMP     AL,-1           ; Is it
					 an extended FCB? 
     322 0131  75 0A                 C          JNZ     HAVATTRB 
     323 0133  83 C2 07              C          ADD     DX,7            ; Adjus
					t to point to normal FCB 
     324 0136  83 C6 06              C          ADD     SI,6 
     325 0139  8A 64 FF              C          MOV     AH,[SI-1]       ; Attri
					bute byte 
     326 013C  AC                    C          LODSB                   ; Get d
					rive select byte 
     327 013D                        C  HAVATTRB: 
     328                             C          invoke  GETTHISDRV 
     329 013D  E8 0000 E             C1  CALL GETTHISDRV
     330                             C          retc 
     331 0140  72 D5                 C2  ??0006: jc ret_l
     332 0142  1E                    C          PUSH    DS 
     333 0143  52                    C          PUSH    DX 
     334 0144  56                    C          PUSH    SI 
Microsoft (R) Macro Assembler  Version 4.00                 3/27/20 09:23:47

STDFCB - FCB calls for MSDOS                                Page     1-9
MOVENAME, LODNAME -- EXAMINE FCB AND SETUP                  

     335 0145  50                    C          PUSH    AX 
     336                             C  ; 
     337                             C  ; DS:DX is pointer to good FCB 
     338                             C  ; DS:SI is same 
     339                             C  ; 
     340                             C  ; Move the file into Name1 and UCASE it
					 
     341                             C  ; 
     342 0146  57                    C          PUSH    DI 
     343                             C          context ES 
     344 0147  16                    C1  PUSH SS
     345 0148  07                    C1  POP ES
     346 0149  BF 0000 E             C          MOV     DI,OFFSET DOSGROUP:NAME
					1 
     347 014C  E8 0177 R             C          CALL    LodName 
     348 014F  5F                    C          POP     DI 
     349 0150  72 17                 C          JC      DrvNoSet 
     350                             C   
     351                             C  ; 
     352                             C  ; are we setting current dir info? 
     353                             C  ; 
     354 0152  0B FF                 C          OR      DI,DI 
     355 0154  75 13                 C          JNZ     DrvNoSet        ; do no
					t set dir info 
     356                             C   
     357                             C  ; 
     358                             C  ; check for device name first, eliminat
					ing drive hits on devices 
     359                             C  ; 
     360                             C          context DS 
     361 0156  16                    C1  PUSH SS
     362 0157  1F                    C1  POP DS
     363                             C          invoke  DEVNAME 
     364 0158  E8 0000 E             C1  CALL DEVNAME
     365 015B  73 0C                 C          JNC     DrvNoSet            ; w
					e have a device 
     366                             C   
     367                             C  ; 
     368                             C  ; make sure that everything is current 
     369                             C  ; 
     370                             C          invoke  FATREAD 
     371 015D  E8 0000 E             C1  CALL FATREAD
     372                             C          ASSUME  DS:NOTHING,ES:NOTHING 
     373 0160  36: C6 06 0000 E 16   C          MOV     BYTE PTR [ATTRIB],attr_
					directory+attr_hidden+attr_system 
     374                             C          invoke  GETCURRDIR 
     375 0166  E8 0000 E             C1  CALL GETCURRDIR
     376 0169                        C  DrvNoSet: 
     377 0169  58                    C          POP     AX 
     378 016A  36: 88 26 0000 E      C          MOV     BYTE PTR [ATTRIB],AH 
     379                             C   
     380 016F  5E                    C          POP     SI 
     381 0170  5A                    C          POP     DX 
     382 0171  1F                    C          POP     DS 
Microsoft (R) Macro Assembler  Version 4.00                 3/27/20 09:23:47

STDFCB - FCB calls for MSDOS                                Page     1-10
MOVENAME, LODNAME -- EXAMINE FCB AND SETUP                  

     383                             C          context ES 
     384 0172  16                    C1  PUSH SS
     385 0173  07                    C1  POP ES
     386 0174  BF 0000 E             C          MOV     DI,OFFSET DOSGROUP:NAME
					1 
     387                             C   
     388                             C          entry   LODNAME 
     389 0177                        C1 LODNAME:
     390                             C  ; Inputs:   DS:SI point to an FCB 
     391                             C  ;           ES:DI point to an FCB 
     392                             C  ; Outputs:  DS:SI point to after FCB 
     393                             C  ;           ES:DI point to after FCB 
     394                             C  ;                 FCB from DS:SI copied
					 and ucased to ES:DI 
     395                             C  ; Carry set if there was an error. 
     396                             C  ; Destroys AX,CX 
     397 0177  80 3C 20              C          CMP     BYTE PTR [SI]," "      
					 ; Don't allow blank as first letter 
     398 017A  F9                    C          STC                     ; In ca
					se of error 
     399                             C          retz 
     400 017B  74 9A                 C2  ??0008: jz ret_l
     401                             C   
     402                             C          ELSE 
     403 017D  B9 000B               C          MOV     CX,11 
     404 0180                        C  MOVCHK: 
     405 0180  E8 0191 R             C          CALL    GETLET 
     406 0183  72 0B                 C          JB      RET6 
     407 0185  75 05                 C          JNZ     STOLET          ; Is it
					 a delimiter? 
     408 0187  3C 20                 C          CMP     AL," "          ; This 
					is the only delimiter allowed 
     409 0189  F9                    C          STC                     ; In ca
					se of error 
     410                             C          retnz 
     411 018A  75 8B                 C2  ??000A: jnz ret_l
     412 018C                        C  STOLET: 
     413 018C  AA                    C          STOSB 
     414 018D  E2 F1                 C          LOOP    MOVCHK 
     415                             C          ENDIF 
     416                             C   
     417 018F  F8                    C          CLC                     ; Got t
					hrough whole name - no error 
     418 0190                        C  RET6:   return 
     419 0190                        C1 ??000C:
     420 0190  C3                    C1  RET
     421                             C  FCB_Move    ENDP 
     422                             C   
     423                             C  SUBTTL GETLET, DELIM -- CHECK CHARACTER
					S AND CONVERT 
Microsoft (R) Macro Assembler  Version 4.00                 3/27/20 09:23:47

STDFCB - FCB calls for MSDOS                                Page     1-11
GETLET, DELIM -- CHECK CHARACTERS AND CONVERT               

     424                             C  PAGE 
     425                             C          procedure   GetLet,NEAR 
     426 0191                        C1 GetLet PROC NEAR
     427                             C  ; Get a byte from [SI], convert it to u
					pper case, and compare for delimiter. 
     428                             C  ; ZF set if a delimiter, CY set if a co
					ntrol character (other than TAB). 
     429 0191  AC                    C          LODSB 
     430                             C   
     431 0192  3C 61                 C          CMP     AL,"a" 
     432 0194  72 06                 C          JB      CHK1 
     433 0196  3C 7A                 C          CMP     AL,"z" 
     434 0198  77 02                 C          JA      CHK1 
     435 019A  2C 20                 C          SUB     AL,20H          ; Conve
					rt to upper case 
     436 019C                        C  CHK1: 
     437 019C  56                    C          PUSH    SI 
     438 019D  36: 8B 36 0000 E      C          MOV     SI,[Current_Country] 
     439 01A2  83 C6 12              C          ADD     SI,Map_call 
     440 01A5  0E                    C          PUSH    CS              ; CS fo
					r long return 
     441 01A6  2E: FF 14             C          CALL    WORD PTR CS:[SI] 
     442 01A9  5E                    C          POP     SI 
     443                             C          entry   CHK 
     444 01AA                        C1 CHK:
     445 01AA  3C 2E                 C          CMP     AL,"." 
     446                             C          retz 
     447 01AC  74 E2                 C2  ??000D: jz ret_l
     448 01AE  3C 22                 C          CMP     AL,'"' 
     449                             C          retz 
     450 01B0  74 DE                 C2  ??000F: jz ret_l
     451 01B2  E8 01E6 R             C          CALL    PATHCHRCMP 
     452                             C          retz 
     453 01B5  74 D9                 C2  ??0011: jz ret_l
     454 01B7  3C 5B                 C          CMP     AL,"[" 
     455                             C          retz 
     456 01B9  74 D5                 C2  ??0013: jz ret_l
     457 01BB  3C 5D                 C          CMP     AL,"]" 
     458                             C          retz 
     459 01BD  74 D1                 C2  ??0015: jz ret_l
     460                             C   
     461 01BF                        C  DELIM: 
     462 01BF  3C 3A                 C          CMP     AL,":"          ; Allow
					 ":" as separator in IBM version 
     463                             C          retz 
     464 01C1  74 CD                 C2  ??0017: jz ret_l
     465                             C   
     466 01C3  3C 3C                 C          CMP     AL,"<" 
     467                             C          retz 
     468 01C5  74 C9                 C2  ??0019: jz ret_l
     469 01C7  3C 7C                 C          CMP     AL,"|" 
     470                             C          retz 
     471 01C9  74 C5                 C2  ??001B: jz ret_l
     472 01CB  3C 3E                 C          CMP     AL,">" 
Microsoft (R) Macro Assembler  Version 4.00                 3/27/20 09:23:47

STDFCB - FCB calls for MSDOS                                Page     1-12
GETLET, DELIM -- CHECK CHARACTERS AND CONVERT               

     473                             C          retz 
     474 01CD  74 C1                 C2  ??001D: jz ret_l
     475                             C   
     476 01CF  3C 2B                 C          CMP     AL,"+" 
     477                             C          retz 
     478 01D1  74 BD                 C2  ??001F: jz ret_l
     479 01D3  3C 3D                 C          CMP     AL,"=" 
     480                             C          retz 
     481 01D5  74 B9                 C2  ??0021: jz ret_l
     482 01D7  3C 3B                 C          CMP     AL,";" 
     483                             C          retz 
     484 01D9  74 B5                 C2  ??0023: jz ret_l
     485 01DB  3C 2C                 C          CMP     AL,"," 
     486                             C          retz 
     487 01DD  74 B1                 C2  ??0025: jz ret_l
     488 01DF                        C  SPCHK: 
     489 01DF  3C 09                 C          CMP     AL,9            ; Filte
					r out tabs too 
     490                             C          retz 
     491 01E1  74 AD                 C2  ??0027: jz ret_l
     492                             C  ; WARNING! " " MUST be the last compare
					 
     493 01E3  3C 20                 C          CMP     AL," " 
     494                             C          return 
     495 01E5                        C1 ??0029:
     496 01E5  C3                    C1  RET
     497                             C  GetLet  ENDP 
     498                             C   
     499                             C          procedure   PATHCHRCMP,NEAR 
     500 01E6                        C1 PATHCHRCMP PROC NEAR
     501 01E6  3C 2F                 C          CMP     AL,'/' 
     502                             C          retz 
     503 01E8  74 FB                 C2  ??002A: jz ret_l
     504 01EA  3C 5C                 C          CMP     AL,'\' 
     505                             C          return 
     506 01EC                        C1 ??002C:
     507 01EC  C3                    C1  RET
     508                             C  PathChrCMP  ENDP 
     509                             C   
     510                             C          ENDIF 
     511                             C  do_ext 
     512                             C   
     513 01ED                        C  CODE    ENDS 
     514                             C      END 

Microsoft (R) Macro Assembler  Version 4.00                 3/27/20 09:23:47

STDFCB - FCB calls for MSDOS                                Symbols-1
                                                             

Macros:

		N a m e			Lines

BREAK  . . . . . . . . . . . . .  	   2
CONDRET  . . . . . . . . . . . .  	  19
CONTEXT  . . . . . . . . . . . .  	   3
DO_EXT . . . . . . . . . . . . .  	   0
ENTRY  . . . . . . . . . . . . .  	   2
ERROR  . . . . . . . . . . . . .  	   4
INVOKE . . . . . . . . . . . . .  	   8
I_AM . . . . . . . . . . . . . .  	  14
I_NEED . . . . . . . . . . . . .  	  11
JUMP . . . . . . . . . . . . . .  	  17
LONG_ADDR  . . . . . . . . . . .  	   7
MAKELAB  . . . . . . . . . . . .  	   4
PROCEDURE  . . . . . . . . . . .  	   2
RETC . . . . . . . . . . . . . .  	   1
RETNC  . . . . . . . . . . . . .  	   1
RETNZ  . . . . . . . . . . . . .  	   1
RETURN . . . . . . . . . . . . .  	   5
RETZ . . . . . . . . . . . . . .  	   1
SHORT_ADDR . . . . . . . . . . .  	  12
TRANSFER . . . . . . . . . . . .  	   8

Structures and Records:

                N a m e                 Width   # fields
                                        Shift   Width   Mask    Initial

ARENA  . . . . . . . . . . . . .  	0005	0003
  ARENA_SIGNATURE  . . . . . . .  	0000
  ARENA_OWNER  . . . . . . . . .  	0001
  ARENA_SIZE . . . . . . . . . .  	0003
BPBLOCK  . . . . . . . . . . . .  	000D	0008
  BPSECSZ  . . . . . . . . . . .  	0000
  BPCLUS . . . . . . . . . . . .  	0002
  BPRES  . . . . . . . . . . . .  	0003
  BPFTCNT  . . . . . . . . . . .  	0005
  BPDRCNT  . . . . . . . . . . .  	0006
  BPSCCNT  . . . . . . . . . . .  	0008
  BPMEDIA  . . . . . . . . . . .  	000A
  BPFTSEC  . . . . . . . . . . .  	000B
BUFFINFO . . . . . . . . . . . .  	0010	0009
  NEXTBUF  . . . . . . . . . . .  	0000
  BUFDRV . . . . . . . . . . . .  	0004
  BUFDIRTY . . . . . . . . . . .  	0005
  BUFPRI . . . . . . . . . . . .  	0006
  VISIT  . . . . . . . . . . . .  	0007
  BUFSECNO . . . . . . . . . . .  	0008
  BUFWRTCNT  . . . . . . . . . .  	000A
  BUFWRTINC  . . . . . . . . . .  	000B
  BUFDRVDP . . . . . . . . . . .  	000C
DIR_ENTRY  . . . . . . . . . . .  	0020	0008
Microsoft (R) Macro Assembler  Version 4.00                 3/27/20 09:23:47

STDFCB - FCB calls for MSDOS                                Symbols-2
                                                             

  DIR_NAME . . . . . . . . . . .  	0000
  DIR_ATTR . . . . . . . . . . .  	000B
  DIR_PAD  . . . . . . . . . . .  	000C
  DIR_TIME . . . . . . . . . . .  	0016
  DIR_DATE . . . . . . . . . . .  	0018
  DIR_FIRST  . . . . . . . . . .  	001A
  DIR_SIZE_L . . . . . . . . . .  	001C
  DIR_SIZE_H . . . . . . . . . .  	001E
DPB  . . . . . . . . . . . . . .  	005E	0012
  DPB_DRIVE  . . . . . . . . . .  	0000
  DPB_UNIT . . . . . . . . . . .  	0001
  DPB_SECTOR_SIZE  . . . . . . .  	0002
  DPB_CLUSTER_MASK . . . . . . .  	0004
  DPB_CLUSTER_SHIFT  . . . . . .  	0005
  DPB_FIRST_FAT  . . . . . . . .  	0006
  DPB_FAT_COUNT  . . . . . . . .  	0008
  DPB_ROOT_ENTRIES . . . . . . .  	0009
  DPB_FIRST_SECTOR . . . . . . .  	000B
  DPB_MAX_CLUSTER  . . . . . . .  	000D
  DPB_FAT_SIZE . . . . . . . . .  	000F
  DPB_DIR_SECTOR . . . . . . . .  	0010
  DPB_DRIVER_ADDR  . . . . . . .  	0012
  DPB_MEDIA  . . . . . . . . . .  	0016
  DPB_FIRST_ACCESS . . . . . . .  	0017
  DPB_NEXT_DPB . . . . . . . . .  	0018
  DPB_CURRENT_DIR  . . . . . . .  	001C
  DPB_DIR_TEXT . . . . . . . . .  	001E
EXEC0  . . . . . . . . . . . . .  	000E	0004
  EXEC0_ENVIRON  . . . . . . . .  	0000
  EXEC0_COM_LINE . . . . . . . .  	0002
  EXEC0_5C_FCB . . . . . . . . .  	0006
  EXEC0_6C_FCB . . . . . . . . .  	000A
EXEC1  . . . . . . . . . . . . .  	0016	0008
  EXEC1_ENVIRON  . . . . . . . .  	0000
  EXEC1_COM_LINE . . . . . . . .  	0002
  EXEC1_5C_FCB . . . . . . . . .  	0006
  EXEC1_6C_FCB . . . . . . . . .  	000A
  EXEC1_SP . . . . . . . . . . .  	000E
  EXEC1_SS . . . . . . . . . . .  	0010
  EXEC1_IP . . . . . . . . . . .  	0012
  EXEC1_CS . . . . . . . . . . .  	0014
EXEC3  . . . . . . . . . . . . .  	0004	0002
  EXEC3_LOAD_ADDR  . . . . . . .  	0000
  EXEC3_RELOC_FAC  . . . . . . .  	0002
EXE_FILE . . . . . . . . . . . .  	0020	000F
  EXE_SIGNATURE  . . . . . . . .  	0000
  EXE_LEN_MOD_512  . . . . . . .  	0002
  EXE_PAGES  . . . . . . . . . .  	0004
  EXE_RLE_COUNT  . . . . . . . .  	0006
  EXE_PAR_DIR  . . . . . . . . .  	0008
  EXE_MIN_BSS  . . . . . . . . .  	000A
  EXE_MAX_BSS  . . . . . . . . .  	000C
  EXE_SS . . . . . . . . . . . .  	000E
  EXE_SP . . . . . . . . . . . .  	0010
Microsoft (R) Macro Assembler  Version 4.00                 3/27/20 09:23:47

STDFCB - FCB calls for MSDOS                                Symbols-3
                                                             

  EXE_CHKSUM . . . . . . . . . .  	0012
  EXE_IP . . . . . . . . . . . .  	0014
  EXE_CS . . . . . . . . . . . .  	0016
  EXE_RLE_TABLE  . . . . . . . .  	0018
  EXE_IOV  . . . . . . . . . . .  	001A
  EXE_SYM_TAB  . . . . . . . . .  	001C
FIND_BUF . . . . . . . . . . . .  	002B	000C
  FIND_BUF_SATTR . . . . . . . .  	0000
  FIND_BUF_DRIVE . . . . . . . .  	0001
  FIND_BUF_NAME  . . . . . . . .  	0002
  FIND_BUF_LASTENT . . . . . . .  	000D
  FIND_BUF_THISDPB . . . . . . .  	000F
  FIND_BUF_DIRSTART  . . . . . .  	0013
  FIND_BUF_ATTR  . . . . . . . .  	0015
  FIND_BUF_TIME  . . . . . . . .  	0016
  FIND_BUF_DATE  . . . . . . . .  	0018
  FIND_BUF_SIZE_L  . . . . . . .  	001A
  FIND_BUF_SIZE_H  . . . . . . .  	001C
  FIND_BUF_PNAME . . . . . . . .  	001E
INTERNAT_BLOCK . . . . . . . . .  	0018	0015
  DATE_TIM_FORMAT  . . . . . . .  	0000
  CURRENCY_SYM . . . . . . . . .  	0002
  THOUS_SEP  . . . . . . . . . .  	0007
  DECIMAL_SEP  . . . . . . . . .  	0009
  DATE_SEP . . . . . . . . . . .  	000B
  TIME_SEP . . . . . . . . . . .  	000D
  BIT_FEILD  . . . . . . . . . .  	000F
  CURRENCY_CENTS . . . . . . . .  	0010
  TIME_24  . . . . . . . . . . .  	0011
  MAP_CALL . . . . . . . . . . .  	0012
  DATA_SEP . . . . . . . . . . .  	0016
PROCESS_DATA_BLOCK . . . . . . .  	005B	000E
  PDB_EXIT_CALL  . . . . . . . .  	0000
  PDB_BLOCK_LEN  . . . . . . . .  	0002
  PDB_CPM_CALL . . . . . . . . .  	0005
  PDB_EXIT . . . . . . . . . . .  	000A
  PDB_CTRL_C . . . . . . . . . .  	000E
  PDB_FATAL_ABORT  . . . . . . .  	0012
  PDB_PARENT_PID . . . . . . . .  	0016
  PDB_JFN_TABLE  . . . . . . . .  	0018
  PDB_ENVIRON  . . . . . . . . .  	002C
  PDB_USER_STACK . . . . . . . .  	002E
  PDB_PAD1 . . . . . . . . . . .  	0032
  PDB_CALL_SYSTEM  . . . . . . .  	0050
  PDB_PAD2 . . . . . . . . . . .  	0055
SFT  . . . . . . . . . . . . . .  	0008	0003
  SFT_LINK . . . . . . . . . . .  	0000
  SFT_COUNT  . . . . . . . . . .  	0004
  SFT_TABLE  . . . . . . . . . .  	0006
SF_ENTRY . . . . . . . . . . . .  	0028	0004
  SF_REF_COUNT . . . . . . . . .  	0000
  SF_MODE  . . . . . . . . . . .  	0001
  SF_ATTR  . . . . . . . . . . .  	0002
  SF_FCB . . . . . . . . . . . .  	0003
Microsoft (R) Macro Assembler  Version 4.00                 3/27/20 09:23:47

STDFCB - FCB calls for MSDOS                                Symbols-4
                                                             

SRHEAD . . . . . . . . . . . . .  	000D	0005
  REQLEN . . . . . . . . . . . .  	0000
  REQUNIT  . . . . . . . . . . .  	0001
  REQFUNC  . . . . . . . . . . .  	0002
  REQSTAT  . . . . . . . . . . .  	0003
SYMBOL_ENTRY . . . . . . . . . .  	0106	0004
  SYM_VALUE  . . . . . . . . . .  	0000
  SYM_TYPE . . . . . . . . . . .  	0004
  SYM_LEN  . . . . . . . . . . .  	0006
  SYM_NAME . . . . . . . . . . .  	0007
SYSDEV . . . . . . . . . . . . .  	0012	0005
  SDEVNEXT . . . . . . . . . . .  	0000
  SDEVATT  . . . . . . . . . . .  	0004
  SDEVSTRAT  . . . . . . . . . .  	0006
  SDEVINT  . . . . . . . . . . .  	0008
  SDEVNAME . . . . . . . . . . .  	000A
SYS_FCB  . . . . . . . . . . . .  	0025	0010
  FCB_DRIVE  . . . . . . . . . .  	0000
  FCB_NAME . . . . . . . . . . .  	0001
  FCB_EXT  . . . . . . . . . . .  	0009
  FCB_EXTENT . . . . . . . . . .  	000C
  FCB_RECSIZ . . . . . . . . . .  	000E
  FCB_FILSIZ . . . . . . . . . .  	0010
  FCB_DRVBP  . . . . . . . . . .  	0012
  FCB_FDATE  . . . . . . . . . .  	0014
  FCB_FTIME  . . . . . . . . . .  	0016
  FCB_DEVID  . . . . . . . . . .  	0018
  FCB_FIRCLUS  . . . . . . . . .  	0019
  FCB_CLUSPOS  . . . . . . . . .  	001B
  FCB_LSTCLUS  . . . . . . . . .  	001D
  FCB_NR . . . . . . . . . . . .  	0020
  FCB_RR . . . . . . . . . . . .  	0021
USER_ENVIRON . . . . . . . . . .  	0018	000C
  USER_AX  . . . . . . . . . . .  	0000
  USER_BX  . . . . . . . . . . .  	0002
  USER_CX  . . . . . . . . . . .  	0004
  USER_DX  . . . . . . . . . . .  	0006
  USER_SI  . . . . . . . . . . .  	0008
  USER_DI  . . . . . . . . . . .  	000A
  USER_BP  . . . . . . . . . . .  	000C
  USER_DS  . . . . . . . . . . .  	000E
  USER_ES  . . . . . . . . . . .  	0010
  USER_IP  . . . . . . . . . . .  	0012
  USER_CS  . . . . . . . . . . .  	0014
  USER_F . . . . . . . . . . . .  	0016

Segments and Groups:

                N a m e         	Size	Align	Combine Class

DOSGROUP . . . . . . . . . . . .  	GROUP
  CODE . . . . . . . . . . . . .  	01ED	BYTE	PUBLIC	'CODE'
  CONSTANTS  . . . . . . . . . .  	0000	BYTE	PUBLIC	'CONST'
  DATA . . . . . . . . . . . . .  	0000	BYTE	PUBLIC	'DATA'
Microsoft (R) Macro Assembler  Version 4.00                 3/27/20 09:23:47

STDFCB - FCB calls for MSDOS                                Symbols-5
                                                             

  LAST . . . . . . . . . . . . .  	0000	BYTE	PUBLIC	'LAST'

Symbols:            

                N a m e         	Type	Value	Attr         

ABORT  . . . . . . . . . . . . .  	Number	0000	
ADDR_INT_ABORT . . . . . . . . .  	Number	0080	
ADDR_INT_COMMAND . . . . . . . .  	Number	0084	
ADDR_INT_CTRL_C  . . . . . . . .  	Number	008C	
ADDR_INT_DISK_READ . . . . . . .  	Number	0094	
ADDR_INT_DISK_WRITE  . . . . . .  	Number	0098	
ADDR_INT_FASTCON . . . . . . . .  	Number	00A4	
ADDR_INT_FATAL_ABORT . . . . . .  	Number	0090	
ADDR_INT_KEEP_PROCESS  . . . . .  	Number	009C	
ADDR_INT_SPOOLER . . . . . . . .  	Number	00A0	
ADDR_INT_TERMINATE . . . . . . .  	Number	0088	
ALLOC  . . . . . . . . . . . . .  	Number	0048	
ALLOCOPER  . . . . . . . . . . .  	Number	0058	
ALLOC_ARENA_TRASHED  . . . . . .  	Alias	 ERROR_ARENA_TRASHED		
ALLOC_NOT_ENOUGH_MEMORY  . . . .  	Alias	 ERROR_NOT_ENOUGH_MEMORY		
ALTVECT  . . . . . . . . . . . .  	Alias	 FALSE		
ARENA_OWNER_SYSTEM . . . . . . .  	Number	0000	
ARENA_SIGNATURE_END  . . . . . .  	Number	005A	
ARENA_SIGNATURE_NORMAL . . . . .  	Number	004D	
ASSIGNOPER . . . . . . . . . . .  	Number	005F	
ATTRIB . . . . . . . . . . . . .  	V BYTE 	0000	DATA	External
ATTR_ALL . . . . . . . . . . . .  	Number	0016	
ATTR_ARCHIVE . . . . . . . . . .  	Number	0020	
ATTR_CHANGEABLE  . . . . . . . .  	Number	0027	
ATTR_DIRECTORY . . . . . . . . .  	Number	0010	
ATTR_HIDDEN  . . . . . . . . . .  	Number	0002	
ATTR_IGNORE  . . . . . . . . . .  	Number	0021	
ATTR_READ_ONLY . . . . . . . . .  	Number	0001	
ATTR_SYSTEM  . . . . . . . . . .  	Number	0004	
ATTR_VOLUME_ID . . . . . . . . .  	Number	0008	

BADDOTS  . . . . . . . . . . . .  	L NEAR	00F0	CODE
BADDRV . . . . . . . . . . . . .  	L NEAR	005B	CODE
BUFINSIZ . . . . . . . . . . . .  	Number	0010	
BUILDFCB . . . . . . . . . . . .  	N PROC	00F5	CODE	Global	Length = 0023

CANCEL . . . . . . . . . . . . .  	Number	0018	
CHAR_OPER  . . . . . . . . . . .  	Number	0037	
CHDIR  . . . . . . . . . . . . .  	Number	003B	
CHDIR_PATH_NOT_FOUND . . . . . .  	Alias	 ERROR_PATH_NOT_FOUND		
CHK  . . . . . . . . . . . . . .  	L NEAR	01AA	CODE	Global
CHK1 . . . . . . . . . . . . . .  	L NEAR	019C	CODE
CHMOD  . . . . . . . . . . . . .  	Number	0043	
CHMOD_ACCESS_DENIED  . . . . . .  	Alias	 ERROR_ACCESS_DENIED		
CHMOD_INVALID_FUNCTION . . . . .  	Alias	 ERROR_INVALID_FUNCTION		
CHMOD_PATH_NOT_FOUND . . . . . .  	Alias	 ERROR_PATH_NOT_FOUND		
CLOSE  . . . . . . . . . . . . .  	Number	003E	
CLOSE_INVALID_FUNCTION . . . . .  	Alias	 ERROR_INVALID_FUNCTION		
Microsoft (R) Macro Assembler  Version 4.00                 3/27/20 09:23:47

STDFCB - FCB calls for MSDOS                                Symbols-6
                                                             

CLOSE_INVALID_HANDLE . . . . . .  	Alias	 ERROR_INVALID_HANDLE		
COUNTRY_NOT_FOUND  . . . . . . .  	Alias	 ERROR_FILE_NOT_FOUND		
CREAT  . . . . . . . . . . . . .  	Number	003C	
CREATENEWFILE  . . . . . . . . .  	Number	005B	
CREATETEMPFILE . . . . . . . . .  	Number	005A	
CREATE_PROCESS_DATA_BLOCK  . . .  	Number	0026	
CREATING . . . . . . . . . . . .  	V BYTE 	0000	DATA	External
CREAT_ACCESS_DENIED  . . . . . .  	Alias	 ERROR_ACCESS_DENIED		
CREAT_PATH_NOT_FOUND . . . . . .  	Alias	 ERROR_PATH_NOT_FOUND		
CREAT_TOO_MANY_OPEN_FILES  . . .  	Alias	 ERROR_TOO_MANY_OPEN_FILES		
CURDIR_INVALID_DRIVE . . . . . .  	Alias	 ERROR_INVALID_DRIVE		
CURRENT_COUNTRY  . . . . . . . .  	V WORD 	0000	DATA	External
CURRENT_DIR  . . . . . . . . . .  	Number	0047	
C_BS . . . . . . . . . . . . . .  	Number	0008	
C_CR . . . . . . . . . . . . . .  	Number	000D	
C_DEL  . . . . . . . . . . . . .  	Number	007F	
C_ETB  . . . . . . . . . . . . .  	Number	0017	
C_ETX  . . . . . . . . . . . . .  	Number	0003	
C_HT . . . . . . . . . . . . . .  	Number	0009	
C_LF . . . . . . . . . . . . . .  	Number	000A	
C_NAK  . . . . . . . . . . . . .  	Number	0015	

DBPBHL . . . . . . . . . . . . .  	Number	0016	
DEALLOC  . . . . . . . . . . . .  	Number	0049	
DEALLOC_ARENA_TRASHED  . . . . .  	Alias	 ERROR_ARENA_TRASHED		
DEALLOC_INVALID_BLOCK  . . . . .  	Alias	 ERROR_INVALID_BLOCK		
DEFDRV . . . . . . . . . . . . .  	L NEAR	0010	CODE
DELIM  . . . . . . . . . . . . .  	L NEAR	01BF	CODE
DEVBPB . . . . . . . . . . . . .  	Number	0002	
DEVFCB . . . . . . . . . . . . .  	V BYTE 	0000	DATA	External
DEVID_BLOCK_DEV  . . . . . . . .  	Number	001F	
DEVID_DEVICE . . . . . . . . . .  	Number	0080	
DEVID_DEVICE_CLOCK . . . . . . .  	Number	0008	
DEVID_DEVICE_CON_IN  . . . . . .  	Number	0001	
DEVID_DEVICE_CON_OUT . . . . . .  	Number	0002	
DEVID_DEVICE_EOF . . . . . . . .  	Number	0040	
DEVID_DEVICE_NULL  . . . . . . .  	Number	0004	
DEVID_DEVICE_RAW . . . . . . . .  	Number	0020	
DEVID_DEVICE_SPECIAL . . . . . .  	Number	0010	
DEVID_EOF  . . . . . . . . . . .  	Number	0040	
DEVID_FILE_CLEAN . . . . . . . .  	Number	0040	
DEVID_FILE_MASK_DRIVE  . . . . .  	Number	003F	
DEVID_ISCIN  . . . . . . . . . .  	Number	0001	
DEVID_ISCLK  . . . . . . . . . .  	Number	0008	
DEVID_ISCOT  . . . . . . . . . .  	Number	0002	
DEVID_ISDEV  . . . . . . . . . .  	Number	0080	
DEVID_ISNUL  . . . . . . . . . .  	Number	0004	
DEVID_RAW  . . . . . . . . . . .  	Number	0020	
DEVID_SPECIAL  . . . . . . . . .  	Number	0010	
DEVIFL . . . . . . . . . . . . .  	Number	0007	
DEVINIT  . . . . . . . . . . . .  	Number	0000	
DEVIOCTL . . . . . . . . . . . .  	Number	4000	
DEVIST . . . . . . . . . . . . .  	Number	0006	
DEVMDCH  . . . . . . . . . . . .  	Number	0001	
Microsoft (R) Macro Assembler  Version 4.00                 3/27/20 09:23:47

STDFCB - FCB calls for MSDOS                                Symbols-7
                                                             

DEVOFL . . . . . . . . . . . . .  	Number	000B	
DEVOST . . . . . . . . . . . . .  	Number	000A	
DEVRD  . . . . . . . . . . . . .  	Number	0004	
DEVRDIOCTL . . . . . . . . . . .  	Number	0003	
DEVRDND  . . . . . . . . . . . .  	Number	0005	
DEVTYP . . . . . . . . . . . . .  	Number	8000	
DEVWRIOCTL . . . . . . . . . . .  	Number	000C	
DEVWRT . . . . . . . . . . . . .  	Number	0008	
DEVWRTV  . . . . . . . . . . . .  	Number	0009	
DFLSHL . . . . . . . . . . . . .  	Number	000F	
DINITHL  . . . . . . . . . . . .  	Number	001A	
DIRPRI . . . . . . . . . . . . .  	Number	000F	
DIRSTRLEN  . . . . . . . . . . .  	Number	0040	
DIR_SEARCH_FIRST . . . . . . . .  	Number	0011	
DIR_SEARCH_NEXT  . . . . . . . .  	Number	0012	
DISK_RESET . . . . . . . . . . .  	Number	000D	
DMEDHL . . . . . . . . . . . . .  	Number	000F	
DOS_MAJOR_VERSION  . . . . . . .  	Number	0002	
DOS_MINOR_VERSION  . . . . . . .  	Number	000B	
DPBSIZ . . . . . . . . . . . . .  	Number	005E	
DRDNDHL  . . . . . . . . . . . .  	Number	000E	
DRDWRHL  . . . . . . . . . . . .  	Number	0016	
DRVBIT . . . . . . . . . . . . .  	Number	0002	
DRVNOSET . . . . . . . . . . . .  	L NEAR	0169	CODE
DSKSIZ . . . . . . . . . . . . .  	Number	000D	
DSTATHL  . . . . . . . . . . . .  	Number	000D	
DUP2_INVALID_HANDLE  . . . . . .  	Alias	 ERROR_INVALID_HANDLE		
DUP_INVALID_HANDLE . . . . . . .  	Alias	 ERROR_INVALID_HANDLE		
DUP_PDB  . . . . . . . . . . . .  	Number	0055	
DUP_TOO_MANY_OPEN_FILES  . . . .  	Alias	 ERROR_TOO_MANY_OPEN_FILES		

ENTRYPOINT . . . . . . . . . . .  	Number	00C0	
ERROR_ACCESS_DENIED  . . . . . .  	Number	0005	
ERROR_ARENA_TRASHED  . . . . . .  	Number	0007	
ERROR_BAD_ENVIRONMENT  . . . . .  	Number	000A	
ERROR_BAD_FORMAT . . . . . . . .  	Number	000B	
ERROR_CURRENT_DIRECTORY  . . . .  	Number	0010	
ERROR_FILE_NOT_FOUND . . . . . .  	Number	0002	
ERROR_INVALID_ACCESS . . . . . .  	Number	000C	
ERROR_INVALID_BLOCK  . . . . . .  	Number	0009	
ERROR_INVALID_DATA . . . . . . .  	Number	000D	
ERROR_INVALID_DRIVE  . . . . . .  	Number	000F	
ERROR_INVALID_FUNCTION . . . . .  	Number	0001	
ERROR_INVALID_HANDLE . . . . . .  	Number	0006	
ERROR_NOT_ENOUGH_MEMORY  . . . .  	Number	0008	
ERROR_NOT_SAME_DEVICE  . . . . .  	Number	0011	
ERROR_NO_MORE_FILES  . . . . . .  	Number	0012	
ERROR_PATH_NOT_FOUND . . . . . .  	Number	0003	
ERROR_TOO_MANY_OPEN_FILES  . . .  	Number	0004	
ESCCH  . . . . . . . . . . . . .  	Number	001B	
EXEC . . . . . . . . . . . . . .  	Number	004B	
EXEC_BAD_ENVIRONMENT . . . . . .  	Alias	 ERROR_BAD_ENVIRONMENT		
EXEC_BAD_FORMAT  . . . . . . . .  	Alias	 ERROR_BAD_FORMAT		
EXEC_FILE_NOT_FOUND  . . . . . .  	Alias	 ERROR_FILE_NOT_FOUND		
Microsoft (R) Macro Assembler  Version 4.00                 3/27/20 09:23:47

STDFCB - FCB calls for MSDOS                                Symbols-8
                                                             

EXEC_FUNC_NO_EXECUTE . . . . . .  	Number	0001	
EXEC_FUNC_OVERLAY  . . . . . . .  	Number	0002	
EXEC_INVALID_FUNCTION  . . . . .  	Alias	 ERROR_INVALID_FUNCTION		
EXEC_NOT_ENOUGH_MEMORY . . . . .  	Alias	 ERROR_NOT_ENOUGH_MEMORY		
EXE_VALID_OLD_SIGNATURE  . . . .  	Number	4D5A	
EXE_VALID_SIGNATURE  . . . . . .  	Number	5A4D	
EXIT . . . . . . . . . . . . . .  	Number	004C	
EXIT_ABORT . . . . . . . . . . .  	Number	0000	
EXIT_CTRL_C  . . . . . . . . . .  	Number	0001	
EXIT_HARD_ERROR  . . . . . . . .  	Number	0002	
EXIT_KEEP_PROCESS  . . . . . . .  	Number	0003	
EXIT_TERMINATE . . . . . . . . .  	Number	0000	
EXTBIT . . . . . . . . . . . . .  	Number	0008	
EXTFCB . . . . . . . . . . . . .  	V BYTE 	0000	DATA	External

FALSE  . . . . . . . . . . . . .  	Number	0000	
FATPRI . . . . . . . . . . . . .  	Number	001E	
FCB_CLOSE  . . . . . . . . . . .  	Number	0010	
FCB_CREATE . . . . . . . . . . .  	Number	0016	
FCB_DELETE . . . . . . . . . . .  	Number	0013	
FCB_MOVE . . . . . . . . . . . .  	N PROC	0118	CODE	Global	Length = 0079
FCB_OPEN . . . . . . . . . . . .  	Number	000F	
FCB_RANDOM_READ  . . . . . . . .  	Number	0021	
FCB_RANDOM_READ_BLOCK  . . . . .  	Number	0027	
FCB_RANDOM_WRITE . . . . . . . .  	Number	0022	
FCB_RANDOM_WRITE_BLOCK . . . . .  	Number	0028	
FCB_RENAME . . . . . . . . . . .  	Number	0017	
FCB_SEQ_READ . . . . . . . . . .  	Number	0014	
FCB_SEQ_WRITE  . . . . . . . . .  	Number	0015	
FILDIRENT  . . . . . . . . . . .  	Number	0010	
FILETIMES_INVALID_FUNCTION . . .  	Alias	 ERROR_INVALID_FUNCTION		
FILETIMES_INVALID_HANDLE . . . .  	Alias	 ERROR_INVALID_HANDLE		
FILE_TIMES . . . . . . . . . . .  	Number	0057	
FILLB  . . . . . . . . . . . . .  	L NEAR	001F	CODE
FILLB2 . . . . . . . . . . . . .  	L NEAR	002C	CODE
FILLNAM  . . . . . . . . . . . .  	L NEAR	00A9	CODE
FILPERPROC . . . . . . . . . . .  	Number	0014	
FINDFIRST_FILE_NOT_FOUND . . . .  	Alias	 ERROR_FILE_NOT_FOUND		
FINDFIRST_NO_MORE_FILES  . . . .  	Alias	 ERROR_NO_MORE_FILES		
FINDNEXT_NO_MORE_FILES . . . . .  	Alias	 ERROR_NO_MORE_FILES		
FIND_FIRST . . . . . . . . . . .  	Number	004E	
FIND_NEXT  . . . . . . . . . . .  	Number	004F	
FREEPRI  . . . . . . . . . . . .  	Number	0000	

GETEXTENDEDERROR . . . . . . . .  	Number	0059	
GETLET . . . . . . . . . . . . .  	N PROC	0191	CODE	Global	Length = 0055
GETWORD  . . . . . . . . . . . .  	L NEAR	007B	CODE
GET_CURRENT_PDB  . . . . . . . .  	Number	0051	
GET_DATE . . . . . . . . . . . .  	Number	002A	
GET_DEFAULT_DPB  . . . . . . . .  	Number	001F	
GET_DEFAULT_DRIVE  . . . . . . .  	Number	0019	
GET_DMA  . . . . . . . . . . . .  	Number	002F	
GET_DPB  . . . . . . . . . . . .  	Number	0032	
GET_DRIVE_FREESPACE  . . . . . .  	Number	0036	
Microsoft (R) Macro Assembler  Version 4.00                 3/27/20 09:23:47

STDFCB - FCB calls for MSDOS                                Symbols-9
                                                             

GET_FCB_FILE_LENGTH  . . . . . .  	Number	0023	
GET_FCB_POSITION . . . . . . . .  	Number	0024	
GET_INDOS_FLAG . . . . . . . . .  	Number	0034	
GET_INTERRUPT_VECTOR . . . . . .  	Number	0035	
GET_IN_VARS  . . . . . . . . . .  	Number	0052	
GET_TIME . . . . . . . . . . . .  	Number	002C	
GET_VERIFY_ON_WRITE  . . . . . .  	Number	0054	
GET_VERSION  . . . . . . . . . .  	Number	0030	
GOTDOTNAME . . . . . . . . . . .  	L NEAR	00F1	CODE

HAVATTRB . . . . . . . . . . . .  	L NEAR	013D	CODE
HAVDRV . . . . . . . . . . . . .  	L NEAR	005D	CODE
HIGHMEM  . . . . . . . . . . . .  	Alias	 FALSE		

IBM  . . . . . . . . . . . . . .  	Alias	 FALSE		
INTBASE  . . . . . . . . . . . .  	Number	0080	
INTERNATIONAL  . . . . . . . . .  	Number	0038	
INTERNATIONAL_INVALID_FUNCTION .  	Alias	 ERROR_INVALID_FUNCTION		
INTERNAT_BLOCK_MAX . . . . . . .  	Number	0020	
INTTAB . . . . . . . . . . . . .  	Number	0020	
INT_ABORT  . . . . . . . . . . .  	Alias	 INTTAB		
INT_COMMAND  . . . . . . . . . .  	Number	0021	
INT_CTRL_C . . . . . . . . . . .  	Number	0023	
INT_DISK_READ  . . . . . . . . .  	Number	0025	
INT_DISK_WRITE . . . . . . . . .  	Number	0026	
INT_FASTCON  . . . . . . . . . .  	Number	0029	
INT_FATAL_ABORT  . . . . . . . .  	Number	0024	
INT_KEEP_PROCESS . . . . . . . .  	Number	0027	
INT_SPOOLER  . . . . . . . . . .  	Number	0028	
INT_TERMINATE  . . . . . . . . .  	Number	0022	
IOCTL  . . . . . . . . . . . . .  	Number	0044	
IOCTL_INVALID_DATA . . . . . . .  	Alias	 ERROR_INVALID_DATA		
IOCTL_INVALID_FUNCTION . . . . .  	Alias	 ERROR_INVALID_FUNCTION		
IOCTL_INVALID_HANDLE . . . . . .  	Alias	 ERROR_INVALID_HANDLE		
ISCIN  . . . . . . . . . . . . .  	Number	0001	
ISCLOCK  . . . . . . . . . . . .  	Number	0008	
ISCOUT . . . . . . . . . . . . .  	Number	0002	
ISFATBYDEV . . . . . . . . . . .  	Number	2000	
ISIBM  . . . . . . . . . . . . .  	Number	0010	
ISNULL . . . . . . . . . . . . .  	Number	0004	

KANJI  . . . . . . . . . . . . .  	Number	0000	
KEEP_PROCESS . . . . . . . . . .  	Number	0031	

LBRPRI . . . . . . . . . . . . .  	Number	0002	
LBWPRI . . . . . . . . . . . . .  	Number	0004	
LOCKOPER . . . . . . . . . . . .  	Number	005C	
LODNAME  . . . . . . . . . . . .  	L NEAR	0177	CODE	Global
LSEEK  . . . . . . . . . . . . .  	Number	0042	
LSEEK_INVALID_FUNCTION . . . . .  	Alias	 ERROR_INVALID_FUNCTION		
LSEEK_INVALID_HANDLE . . . . . .  	Alias	 ERROR_INVALID_HANDLE		

MAKEFCB  . . . . . . . . . . . .  	N PROC	0000	CODE	Global	Length = 00B7
MI_INT . . . . . . . . . . . . .  	Number	00CD	
Microsoft (R) Macro Assembler  Version 4.00                 3/27/20 09:23:47

STDFCB - FCB calls for MSDOS                                Symbols-10
                                                             

MI_LONG_CALL . . . . . . . . . .  	Number	009A	
MI_LONG_JMP  . . . . . . . . . .  	Number	00EA	
MI_LONG_RET  . . . . . . . . . .  	Number	00CB	
MKDIR  . . . . . . . . . . . . .  	Number	0039	
MKDIR_ACCESS_DENIED  . . . . . .  	Alias	 ERROR_ACCESS_DENIED		
MKDIR_PATH_NOT_FOUND . . . . . .  	Alias	 ERROR_PATH_NOT_FOUND		
MOVCHK . . . . . . . . . . . . .  	L NEAR	0180	CODE
MOVNAME  . . . . . . . . . . . .  	L NEAR	011D	CODE	Global
MOVNAMENOSET . . . . . . . . . .  	L NEAR	0118	CODE	Global
MOVSTART . . . . . . . . . . . .  	L NEAR	011F	CODE
MSVER  . . . . . . . . . . . . .  	Alias	 TRUE		
MUSTCHECKCX  . . . . . . . . . .  	L NEAR	0094	CODE
MUSTGETWORD  . . . . . . . . . .  	L NEAR	0081	CODE

NAMBIT . . . . . . . . . . . . .  	Number	0004	
NAME1  . . . . . . . . . . . . .  	V BYTE 	0000	DATA	External
NAMETRANS  . . . . . . . . . . .  	N PROC	00B7	CODE	Global	Length = 003E
NODOT  . . . . . . . . . . . . .  	L NEAR	0074	CODE
NODRV  . . . . . . . . . . . . .  	L NEAR	0060	CODE
NONAM  . . . . . . . . . . . . .  	L NEAR	0077	CODE
NORMSCAN . . . . . . . . . . . .  	L NEAR	0062	CODE
NOSCAN . . . . . . . . . . . . .  	L NEAR	0045	CODE
NOSTAR . . . . . . . . . . . . .  	L NEAR	009F	CODE
NO_ERROR_OCCURRED  . . . . . . .  	Text  0                                                              ?		
NUMIO  . . . . . . . . . . . . .  	V BYTE 	0000	DATA	External

OEM_C1 . . . . . . . . . . . . .  	Number	00F9	
OEM_C2 . . . . . . . . . . . . .  	Number	00FA	
OEM_C3 . . . . . . . . . . . . .  	Number	00FB	
OEM_C4 . . . . . . . . . . . . .  	Number	00FC	
OEM_C5 . . . . . . . . . . . . .  	Number	00FD	
OEM_C6 . . . . . . . . . . . . .  	Number	00FE	
OEM_C7 . . . . . . . . . . . . .  	Number	00FF	
OPEN . . . . . . . . . . . . . .  	Number	003D	
OPEN_ACCESS_DENIED . . . . . . .  	Alias	 ERROR_ACCESS_DENIED		
OPEN_FILE_NOT_FOUND  . . . . . .  	Alias	 ERROR_FILE_NOT_FOUND		
OPEN_FOR_BOTH  . . . . . . . . .  	Number	0002	
OPEN_FOR_READ  . . . . . . . . .  	Number	0000	
OPEN_FOR_WRITE . . . . . . . . .  	Number	0001	
OPEN_INVALID_ACCESS  . . . . . .  	Alias	 ERROR_INVALID_ACCESS		
OPEN_TOO_MANY_OPEN_FILES . . . .  	Alias	 ERROR_TOO_MANY_OPEN_FILES		

PARSE_FILE_DESCRIPTOR  . . . . .  	Number	0029	
PATHCHRCMP . . . . . . . . . . .  	N PROC	01E6	CODE	Global	Length = 0007

RAW_CON_INPUT  . . . . . . . . .  	Number	0007	
RAW_CON_IO . . . . . . . . . . .  	Number	0006	
READ . . . . . . . . . . . . . .  	Number	003F	
READ_ACCESS_DENIED . . . . . . .  	Alias	 ERROR_ACCESS_DENIED		
READ_INVALID_HANDLE  . . . . . .  	Alias	 ERROR_INVALID_HANDLE		
RENAME . . . . . . . . . . . . .  	Number	0056	
RENAME_ACCESS_DENIED . . . . . .  	Alias	 ERROR_ACCESS_DENIED		
RENAME_FILE_NOT_FOUND  . . . . .  	Alias	 ERROR_FILE_NOT_FOUND		
RENAME_NOT_SAME_DEVICE . . . . .  	Alias	 ERROR_NOT_SAME_DEVICE		
Microsoft (R) Macro Assembler  Version 4.00                 3/27/20 09:23:47

STDFCB - FCB calls for MSDOS                                Symbols-11
                                                             

RET6 . . . . . . . . . . . . . .  	L NEAR	0190	CODE
RET_C  . . . . . . . . . . . . .  	NEAR 	0140	CODE
RET_L  . . . . . . . . . . . . .  	NEAR 	01EC	CODE
RET_NZ . . . . . . . . . . . . .  	NEAR 	018A	CODE
RET_Z  . . . . . . . . . . . . .  	NEAR 	01E8	CODE
RMDIR  . . . . . . . . . . . . .  	Number	003A	
RMDIR_ACCESS_DENIED  . . . . . .  	Alias	 ERROR_ACCESS_DENIED		
RMDIR_CURRENT_DIRECTORY  . . . .  	Alias	 ERROR_CURRENT_DIRECTORY		
RMDIR_PATH_NOT_FOUND . . . . . .  	Alias	 ERROR_PATH_NOT_FOUND		
RPRI . . . . . . . . . . . . . .  	Number	0006	

SCANB  . . . . . . . . . . . . .  	L NEAR	00AF	CODE
SERVERCALL . . . . . . . . . . .  	Number	005D	
SETBLOCK . . . . . . . . . . . .  	Number	004A	
SETBLOCK_ARENA_TRASHED . . . . .  	Alias	 ERROR_ARENA_TRASHED		
SETBLOCK_INVALID_BLOCK . . . . .  	Alias	 ERROR_INVALID_BLOCK		
SETBLOCK_INVALID_FUNCTION  . . .  	Alias	 ERROR_INVALID_FUNCTION		
SETBLOCK_NOT_ENOUGH_MEMORY . . .  	Alias	 ERROR_NOT_ENOUGH_MEMORY		
SETDPB . . . . . . . . . . . . .  	Number	0053	
SET_CTRL_C_TRAPPING  . . . . . .  	Number	0033	
SET_CURRENT_PDB  . . . . . . . .  	Number	0050	
SET_DATE . . . . . . . . . . . .  	Number	002B	
SET_DEFAULT_DRIVE  . . . . . . .  	Number	000E	
SET_DMA  . . . . . . . . . . . .  	Number	001A	
SET_INTERRUPT_VECTOR . . . . . .  	Number	0025	
SET_OEM_HANDLER  . . . . . . . .  	Number	00F8	
SET_TIME . . . . . . . . . . . .  	Number	002D	
SET_VERIFY_ON_WRITE  . . . . . .  	Number	002E	
SF_DEFAULT_NUMBER  . . . . . . .  	Number	0005	
SKPSPC . . . . . . . . . . . . .  	L NEAR	0042	CODE
SPACEFLAG  . . . . . . . . . . .  	V BYTE 	0000	DATA	External
SPCHK  . . . . . . . . . . . . .  	L NEAR	01DF	CODE
STBUI  . . . . . . . . . . . . .  	Number	0200	
STDAUX . . . . . . . . . . . . .  	Number	0003	
STDERR . . . . . . . . . . . . .  	Number	0002	
STDIN  . . . . . . . . . . . . .  	Number	0000	
STDON  . . . . . . . . . . . . .  	Number	0100	
STDOUT . . . . . . . . . . . . .  	Number	0001	
STDPRN . . . . . . . . . . . . .  	Number	0004	
STD_AUX_INPUT  . . . . . . . . .  	Number	0003	
STD_AUX_OUTPUT . . . . . . . . .  	Number	0004	
STD_CON_INPUT  . . . . . . . . .  	Number	0001	
STD_CON_INPUT_FLUSH  . . . . . .  	Number	000C	
STD_CON_INPUT_NO_ECHO  . . . . .  	Number	0008	
STD_CON_INPUT_STATUS . . . . . .  	Number	000B	
STD_CON_OUTPUT . . . . . . . . .  	Number	0002	
STD_CON_STRING_INPUT . . . . . .  	Number	000A	
STD_CON_STRING_OUTPUT  . . . . .  	Number	0009	
STD_PRINTER_OUTPUT . . . . . . .  	Number	0005	
STECODE  . . . . . . . . . . . .  	Number	00FF	
STERR  . . . . . . . . . . . . .  	Number	8000	
STOLET . . . . . . . . . . . . .  	L NEAR	018C	CODE

TOGLINS  . . . . . . . . . . . .  	Alias	 WANG		
Microsoft (R) Macro Assembler  Version 4.00                 3/27/20 09:23:47

STDFCB - FCB calls for MSDOS                                Symbols-12
                                                             

TOGLPRN  . . . . . . . . . . . .  	Alias	 FALSE		
TRUE . . . . . . . . . . . . . .  	Number	FFFF	

UNLINK . . . . . . . . . . . . .  	Number	0041	
UNLINK_ACCESS_DENIED . . . . . .  	Alias	 ERROR_ACCESS_DENIED		
UNLINK_FILE_NOT_FOUND  . . . . .  	Alias	 ERROR_FILE_NOT_FOUND		
USERIDOPER . . . . . . . . . . .  	Number	005E	

WAIT . . . . . . . . . . . . . .  	Number	004D	
WANG . . . . . . . . . . . . . .  	Alias	 FALSE		
WPRI . . . . . . . . . . . . . .  	Number	0008	
WRECODE  . . . . . . . . . . . .  	Number	0000	
WRITE  . . . . . . . . . . . . .  	Number	0040	
WRITE_ACCESS_DENIED  . . . . . .  	Alias	 ERROR_ACCESS_DENIED		
WRITE_INVALID_HANDLE . . . . . .  	Alias	 ERROR_INVALID_HANDLE		

XDUP . . . . . . . . . . . . . .  	Number	0045	
XDUP2  . . . . . . . . . . . . .  	Number	0046	

ZEROEXT  . . . . . . . . . . . .  	Alias	 TRUE		

??0000 . . . . . . . . . . . . .  	L NEAR	0076	CODE
??0001 . . . . . . . . . . . . .  	L NEAR	007A	CODE
??0002 . . . . . . . . . . . . .  	L NEAR	00AE	CODE
??0003 . . . . . . . . . . . . .  	L NEAR	00B6	CODE
??0004 . . . . . . . . . . . . .  	L NEAR	00F4	CODE
??0005 . . . . . . . . . . . . .  	L NEAR	0117	CODE
??0006 . . . . . . . . . . . . .  	L NEAR	0140	CODE
??0008 . . . . . . . . . . . . .  	L NEAR	017B	CODE
??000A . . . . . . . . . . . . .  	L NEAR	018A	CODE
??000C . . . . . . . . . . . . .  	L NEAR	0190	CODE
??000D . . . . . . . . . . . . .  	L NEAR	01AC	CODE
??000F . . . . . . . . . . . . .  	L NEAR	01B0	CODE
??0011 . . . . . . . . . . . . .  	L NEAR	01B5	CODE
??0013 . . . . . . . . . . . . .  	L NEAR	01B9	CODE
??0015 . . . . . . . . . . . . .  	L NEAR	01BD	CODE
??0017 . . . . . . . . . . . . .  	L NEAR	01C1	CODE
??0019 . . . . . . . . . . . . .  	L NEAR	01C5	CODE
??001B . . . . . . . . . . . . .  	L NEAR	01C9	CODE
??001D . . . . . . . . . . . . .  	L NEAR	01CD	CODE
??001F . . . . . . . . . . . . .  	L NEAR	01D1	CODE
??0021 . . . . . . . . . . . . .  	L NEAR	01D5	CODE
??0023 . . . . . . . . . . . . .  	L NEAR	01D9	CODE
??0025 . . . . . . . . . . . . .  	L NEAR	01DD	CODE
??0027 . . . . . . . . . . . . .  	L NEAR	01E1	CODE
??0029 . . . . . . . . . . . . .  	L NEAR	01E5	CODE
??002A . . . . . . . . . . . . .  	L NEAR	01E8	CODE
??002C . . . . . . . . . . . . .  	L NEAR	01EC	CODE


   1871 Source  Lines
   2498 Total   Lines
    627 Symbols

  18656 Bytes symbol space free

      0 Warning Errors
      0 Severe  Errors
